ARM GAS  C:\Users\asd\AppData\Local\Temp\cckWhVOw.s 			page 1


   1              		.syntax unified
   2              		.cpu cortex-m3
   3              		.fpu softvfp
   4              		.eabi_attribute 20, 1
   5              		.eabi_attribute 21, 1
   6              		.eabi_attribute 23, 3
   7              		.eabi_attribute 24, 1
   8              		.eabi_attribute 25, 1
   9              		.eabi_attribute 26, 1
  10              		.eabi_attribute 30, 1
  11              		.eabi_attribute 34, 1
  12              		.eabi_attribute 18, 4
  13              		.thumb
  14              		.syntax unified
  15              		.file	"IR.c"
  16              		.text
  17              	.Ltext0:
  18              		.cfi_sections	.debug_frame
  19              		.section	.text.wait_going_up,"ax",%progbits
  20              		.align	2
  21              		.global	wait_going_up
  22              		.thumb
  23              		.thumb_func
  24              		.type	wait_going_up, %function
  25              	wait_going_up:
  26              	.LFB64:
  27              		.file 1 "ZumoLibrary\\IR.c"
   1:ZumoLibrary/IR.c **** /**
   2:ZumoLibrary/IR.c ****  * @file IR.c
   3:ZumoLibrary/IR.c ****  * @brief Basic methods for operating IR receiver. For more details, please refer to IR.h file. 
   4:ZumoLibrary/IR.c ****  * @details part number: TSOP-2236
   5:ZumoLibrary/IR.c **** */
   6:ZumoLibrary/IR.c **** #include "IR.h"
   7:ZumoLibrary/IR.c **** 
   8:ZumoLibrary/IR.c **** 
   9:ZumoLibrary/IR.c **** /**
  10:ZumoLibrary/IR.c **** * @brief Waiting until signal goes up
  11:ZumoLibrary/IR.c **** * @details continue looping before IR_receiver value becomes 1
  12:ZumoLibrary/IR.c **** */
  13:ZumoLibrary/IR.c **** void wait_going_up()
  14:ZumoLibrary/IR.c **** {
  28              		.loc 1 14 0
  29              		.cfi_startproc
  30              		@ args = 0, pretend = 0, frame = 0
  31              		@ frame_needed = 0, uses_anonymous_args = 0
  32 0000 08B5     		push	{r3, lr}
  33              		.cfi_def_cfa_offset 8
  34              		.cfi_offset 3, -8
  35              		.cfi_offset 14, -4
  36              	.L2:
  15:ZumoLibrary/IR.c ****     while(!IR_receiver_Read()==1);
  37              		.loc 1 15 0 discriminator 1
  38 0002 FFF7FEFF 		bl	IR_receiver_Read
  39              	.LVL0:
  40 0006 0028     		cmp	r0, #0
  41 0008 FBD0     		beq	.L2
  16:ZumoLibrary/IR.c **** }    
ARM GAS  C:\Users\asd\AppData\Local\Temp\cckWhVOw.s 			page 2


  42              		.loc 1 16 0
  43 000a 08BD     		pop	{r3, pc}
  44              		.cfi_endproc
  45              	.LFE64:
  46              		.size	wait_going_up, .-wait_going_up
  47              		.section	.text.wait_going_down,"ax",%progbits
  48              		.align	2
  49              		.global	wait_going_down
  50              		.thumb
  51              		.thumb_func
  52              		.type	wait_going_down, %function
  53              	wait_going_down:
  54              	.LFB65:
  17:ZumoLibrary/IR.c **** 
  18:ZumoLibrary/IR.c **** 
  19:ZumoLibrary/IR.c **** /**
  20:ZumoLibrary/IR.c **** * @brief Waiting until signal goes down
  21:ZumoLibrary/IR.c **** * @details continue looping before IR_receiver value becomes 0
  22:ZumoLibrary/IR.c **** */
  23:ZumoLibrary/IR.c **** void wait_going_down()
  24:ZumoLibrary/IR.c **** {
  55              		.loc 1 24 0
  56              		.cfi_startproc
  57              		@ args = 0, pretend = 0, frame = 0
  58              		@ frame_needed = 0, uses_anonymous_args = 0
  59 0000 08B5     		push	{r3, lr}
  60              		.cfi_def_cfa_offset 8
  61              		.cfi_offset 3, -8
  62              		.cfi_offset 14, -4
  63              	.L5:
  25:ZumoLibrary/IR.c ****     while(IR_receiver_Read()==1);
  64              		.loc 1 25 0 discriminator 1
  65 0002 FFF7FEFF 		bl	IR_receiver_Read
  66              	.LVL1:
  67 0006 0128     		cmp	r0, #1
  68 0008 FBD0     		beq	.L5
  26:ZumoLibrary/IR.c **** }
  69              		.loc 1 26 0
  70 000a 08BD     		pop	{r3, pc}
  71              		.cfi_endproc
  72              	.LFE65:
  73              		.size	wait_going_down, .-wait_going_down
  74              		.section	.text.count_downtime,"ax",%progbits
  75              		.align	2
  76              		.global	count_downtime
  77              		.thumb
  78              		.thumb_func
  79              		.type	count_downtime, %function
  80              	count_downtime:
  81              	.LFB66:
  27:ZumoLibrary/IR.c **** 
  28:ZumoLibrary/IR.c **** 
  29:ZumoLibrary/IR.c **** /**
  30:ZumoLibrary/IR.c **** * @brief Counting to signal down
  31:ZumoLibrary/IR.c **** * @details Measuring the time until IR_receiver value goes up
  32:ZumoLibrary/IR.c **** * @return int
  33:ZumoLibrary/IR.c **** *   - returns count time
ARM GAS  C:\Users\asd\AppData\Local\Temp\cckWhVOw.s 			page 3


  34:ZumoLibrary/IR.c **** */
  35:ZumoLibrary/IR.c **** int count_downtime()
  36:ZumoLibrary/IR.c **** {
  82              		.loc 1 36 0
  83              		.cfi_startproc
  84              		@ args = 0, pretend = 0, frame = 0
  85              		@ frame_needed = 0, uses_anonymous_args = 0
  86 0000 10B5     		push	{r4, lr}
  87              		.cfi_def_cfa_offset 8
  88              		.cfi_offset 4, -8
  89              		.cfi_offset 14, -4
  90              	.LVL2:
  37:ZumoLibrary/IR.c ****     int cnt =0;
  91              		.loc 1 37 0
  92 0002 0024     		movs	r4, #0
  38:ZumoLibrary/IR.c ****     while(!IR_receiver_Read()==1)
  93              		.loc 1 38 0
  94 0004 00E0     		b	.L8
  95              	.LVL3:
  96              	.L9:
  39:ZumoLibrary/IR.c ****         cnt++;
  97              		.loc 1 39 0
  98 0006 0134     		adds	r4, r4, #1
  99              	.LVL4:
 100              	.L8:
  38:ZumoLibrary/IR.c ****     while(!IR_receiver_Read()==1)
 101              		.loc 1 38 0
 102 0008 FFF7FEFF 		bl	IR_receiver_Read
 103              	.LVL5:
 104 000c 0028     		cmp	r0, #0
 105 000e FAD0     		beq	.L9
  40:ZumoLibrary/IR.c ****     
  41:ZumoLibrary/IR.c ****     return cnt;
  42:ZumoLibrary/IR.c **** }
 106              		.loc 1 42 0
 107 0010 2046     		mov	r0, r4
 108 0012 10BD     		pop	{r4, pc}
 109              		.cfi_endproc
 110              	.LFE66:
 111              		.size	count_downtime, .-count_downtime
 112              		.section	.text.count_uptime,"ax",%progbits
 113              		.align	2
 114              		.global	count_uptime
 115              		.thumb
 116              		.thumb_func
 117              		.type	count_uptime, %function
 118              	count_uptime:
 119              	.LFB67:
  43:ZumoLibrary/IR.c **** 
  44:ZumoLibrary/IR.c **** 
  45:ZumoLibrary/IR.c **** /**
  46:ZumoLibrary/IR.c **** * @brief    Counting to signal up 
  47:ZumoLibrary/IR.c **** * @details  Measuring the time until IR_receiver value goes down
  48:ZumoLibrary/IR.c **** * @return   int
  49:ZumoLibrary/IR.c **** *   - returns count time
  50:ZumoLibrary/IR.c **** */
  51:ZumoLibrary/IR.c **** int count_uptime()
ARM GAS  C:\Users\asd\AppData\Local\Temp\cckWhVOw.s 			page 4


  52:ZumoLibrary/IR.c **** {
 120              		.loc 1 52 0
 121              		.cfi_startproc
 122              		@ args = 0, pretend = 0, frame = 0
 123              		@ frame_needed = 0, uses_anonymous_args = 0
 124 0000 10B5     		push	{r4, lr}
 125              		.cfi_def_cfa_offset 8
 126              		.cfi_offset 4, -8
 127              		.cfi_offset 14, -4
 128              	.LVL6:
  53:ZumoLibrary/IR.c ****     int cnt =0;
 129              		.loc 1 53 0
 130 0002 0024     		movs	r4, #0
  54:ZumoLibrary/IR.c ****     while(IR_receiver_Read()==1)
 131              		.loc 1 54 0
 132 0004 00E0     		b	.L12
 133              	.LVL7:
 134              	.L13:
  55:ZumoLibrary/IR.c ****         cnt++;
 135              		.loc 1 55 0
 136 0006 0134     		adds	r4, r4, #1
 137              	.LVL8:
 138              	.L12:
  54:ZumoLibrary/IR.c ****     while(IR_receiver_Read()==1)
 139              		.loc 1 54 0
 140 0008 FFF7FEFF 		bl	IR_receiver_Read
 141              	.LVL9:
 142 000c 0128     		cmp	r0, #1
 143 000e FAD0     		beq	.L13
  56:ZumoLibrary/IR.c ****     
  57:ZumoLibrary/IR.c ****     return cnt;
  58:ZumoLibrary/IR.c **** }
 144              		.loc 1 58 0
 145 0010 2046     		mov	r0, r4
 146 0012 10BD     		pop	{r4, pc}
 147              		.cfi_endproc
 148              	.LFE67:
 149              		.size	count_uptime, .-count_uptime
 150              		.section	.text.get_IR,"ax",%progbits
 151              		.align	2
 152              		.global	get_IR
 153              		.thumb
 154              		.thumb_func
 155              		.type	get_IR, %function
 156              	get_IR:
 157              	.LFB68:
  59:ZumoLibrary/IR.c **** 
  60:ZumoLibrary/IR.c **** 
  61:ZumoLibrary/IR.c **** /**
  62:ZumoLibrary/IR.c **** * @brief    Getting remote controller value
  63:ZumoLibrary/IR.c **** * @details  Getting each of the value sent by remote controller
  64:ZumoLibrary/IR.c **** * @return   int
  65:ZumoLibrary/IR.c ****     - returns hex value
  66:ZumoLibrary/IR.c **** */
  67:ZumoLibrary/IR.c **** int get_IR()
  68:ZumoLibrary/IR.c **** {
 158              		.loc 1 68 0
ARM GAS  C:\Users\asd\AppData\Local\Temp\cckWhVOw.s 			page 5


 159              		.cfi_startproc
 160              		@ args = 0, pretend = 0, frame = 40
 161              		@ frame_needed = 0, uses_anonymous_args = 0
 162 0000 30B5     		push	{r4, r5, lr}
 163              		.cfi_def_cfa_offset 12
 164              		.cfi_offset 4, -12
 165              		.cfi_offset 5, -8
 166              		.cfi_offset 14, -4
 167 0002 8BB0     		sub	sp, sp, #44
 168              		.cfi_def_cfa_offset 56
  69:ZumoLibrary/IR.c ****     uint8 bit[33]={0};
 169              		.loc 1 69 0
 170 0004 2122     		movs	r2, #33
 171 0006 0021     		movs	r1, #0
 172 0008 01A8     		add	r0, sp, #4
 173 000a FFF7FEFF 		bl	memset
 174              	.LVL10:
  70:ZumoLibrary/IR.c ****     unsigned int val=0;
  71:ZumoLibrary/IR.c ****     uint t1, t2, i;
  72:ZumoLibrary/IR.c ****     
  73:ZumoLibrary/IR.c ****     wait_going_down();
 175              		.loc 1 73 0
 176 000e FFF7FEFF 		bl	wait_going_down
 177              	.LVL11:
  74:ZumoLibrary/IR.c ****     
  75:ZumoLibrary/IR.c ****     for(i = 0; i < 33; i++)     // loop 33times ( 1bit - Start bit, 32bits - Databit)
 178              		.loc 1 75 0
 179 0012 0024     		movs	r4, #0
 180 0014 12E0     		b	.L16
 181              	.LVL12:
 182              	.L19:
  76:ZumoLibrary/IR.c ****     {
  77:ZumoLibrary/IR.c ****         t1 = 0;
  78:ZumoLibrary/IR.c ****         t2 = 0;
  79:ZumoLibrary/IR.c ****         
  80:ZumoLibrary/IR.c ****         t1 = count_downtime();
 183              		.loc 1 80 0
 184 0016 FFF7FEFF 		bl	count_downtime
 185              	.LVL13:
 186 001a 0546     		mov	r5, r0
 187              	.LVL14:
  81:ZumoLibrary/IR.c ****         t2 = count_uptime();
 188              		.loc 1 81 0
 189 001c FFF7FEFF 		bl	count_uptime
 190              	.LVL15:
  82:ZumoLibrary/IR.c ****         
  83:ZumoLibrary/IR.c ****         // If up time is longer than down time, value of the bit becomes 1
  84:ZumoLibrary/IR.c ****         if(t2 > t1)
 191              		.loc 1 84 0
 192 0020 8542     		cmp	r5, r0
 193 0022 05D2     		bcs	.L17
  85:ZumoLibrary/IR.c ****             bit[i]=1;
 194              		.loc 1 85 0
 195 0024 0122     		movs	r2, #1
 196 0026 0AAB     		add	r3, sp, #40
 197 0028 2344     		add	r3, r3, r4
 198 002a 03F8242C 		strb	r2, [r3, #-36]
ARM GAS  C:\Users\asd\AppData\Local\Temp\cckWhVOw.s 			page 6


 199 002e 04E0     		b	.L18
 200              	.L17:
  86:ZumoLibrary/IR.c ****         else
  87:ZumoLibrary/IR.c ****             bit[i]=0; 
 201              		.loc 1 87 0
 202 0030 0022     		movs	r2, #0
 203 0032 0AAB     		add	r3, sp, #40
 204 0034 2344     		add	r3, r3, r4
 205 0036 03F8242C 		strb	r2, [r3, #-36]
 206              	.L18:
  75:ZumoLibrary/IR.c ****     {
 207              		.loc 1 75 0 discriminator 2
 208 003a 0134     		adds	r4, r4, #1
 209              	.LVL16:
 210              	.L16:
  75:ZumoLibrary/IR.c ****     {
 211              		.loc 1 75 0 is_stmt 0 discriminator 1
 212 003c 202C     		cmp	r4, #32
 213 003e EAD9     		bls	.L19
 214 0040 0023     		movs	r3, #0
 215 0042 1846     		mov	r0, r3
 216 0044 08E0     		b	.L20
 217              	.LVL17:
 218              	.L21:
  88:ZumoLibrary/IR.c ****     } 
  89:ZumoLibrary/IR.c ****    
  90:ZumoLibrary/IR.c ****     /* // If you want to see binary value
  91:ZumoLibrary/IR.c ****     int cnt;
  92:ZumoLibrary/IR.c ****     for(cnt=0; cnt<33; cnt++)
  93:ZumoLibrary/IR.c ****         printf("%d ",bit[cnt]);
  94:ZumoLibrary/IR.c ****     printf("\r\n\n");
  95:ZumoLibrary/IR.c ****     */
  96:ZumoLibrary/IR.c ****    
  97:ZumoLibrary/IR.c ****     // compress bits to single int, ignore start bit
  98:ZumoLibrary/IR.c **** 
  99:ZumoLibrary/IR.c ****     for( i=0; i<32; i++)
 100:ZumoLibrary/IR.c ****         val |= bit[i+1] << i;
 219              		.loc 1 100 0 is_stmt 1 discriminator 3
 220 0046 591C     		adds	r1, r3, #1
 221 0048 0AAA     		add	r2, sp, #40
 222 004a 0A44     		add	r2, r2, r1
 223 004c 12F8242C 		ldrb	r2, [r2, #-36]	@ zero_extendqisi2
 224 0050 02FA03F3 		lsl	r3, r2, r3
 225              	.LVL18:
 226 0054 1843     		orrs	r0, r0, r3
 227              	.LVL19:
  99:ZumoLibrary/IR.c ****         val |= bit[i+1] << i;
 228              		.loc 1 99 0 discriminator 3
 229 0056 0B46     		mov	r3, r1
 230              	.LVL20:
 231              	.L20:
  99:ZumoLibrary/IR.c ****         val |= bit[i+1] << i;
 232              		.loc 1 99 0 is_stmt 0 discriminator 1
 233 0058 1F2B     		cmp	r3, #31
 234 005a F4D9     		bls	.L21
 101:ZumoLibrary/IR.c ****     
 102:ZumoLibrary/IR.c ****     return val;
ARM GAS  C:\Users\asd\AppData\Local\Temp\cckWhVOw.s 			page 7


 103:ZumoLibrary/IR.c **** }...
 235              		.loc 1 103 0 is_stmt 1
 236 005c 0BB0     		add	sp, sp, #44
 237              		.cfi_def_cfa_offset 12
 238              		@ sp needed
 239 005e 30BD     		pop	{r4, r5, pc}
 240              		.cfi_endproc
 241              	.LFE68:
 242              		.size	get_IR, .-get_IR
 243              		.text
 244              	.Letext0:
 245              		.file 2 "j:\\psoc\\psoc creator\\4.1\\psoc creator\\import\\gnu\\arm\\5.4.1\\arm-none-eabi\\includ
 246              		.file 3 "j:\\psoc\\psoc creator\\4.1\\psoc creator\\import\\gnu\\arm\\5.4.1\\arm-none-eabi\\includ
 247              		.file 4 "Generated_Source\\PSoC5/cytypes.h"
 248              		.file 5 "j:\\psoc\\psoc creator\\4.1\\psoc creator\\import\\gnu\\arm\\5.4.1\\arm-none-eabi\\includ
 249              		.file 6 "Generated_Source\\PSoC5/core_cm3.h"
 250              		.file 7 "Generated_Source\\PSoC5/IR_receiver.h"