ARM GAS  C:\Users\asd\AppData\Local\Temp\ccORyMx4.s 			page 1


   1              		.syntax unified
   2              		.cpu cortex-m3
   3              		.fpu softvfp
   4              		.eabi_attribute 20, 1
   5              		.eabi_attribute 21, 1
   6              		.eabi_attribute 23, 3
   7              		.eabi_attribute 24, 1
   8              		.eabi_attribute 25, 1
   9              		.eabi_attribute 26, 1
  10              		.eabi_attribute 30, 1
  11              		.eabi_attribute 34, 1
  12              		.eabi_attribute 18, 4
  13              		.thumb
  14              		.syntax unified
  15              		.file	"Nunchuk.c"
  16              		.text
  17              	.Ltext0:
  18              		.cfi_sections	.debug_frame
  19              		.section	.text.nunchuk_start,"ax",%progbits
  20              		.align	2
  21              		.global	nunchuk_start
  22              		.thumb
  23              		.thumb_func
  24              		.type	nunchuk_start, %function
  25              	nunchuk_start:
  26              	.LFB64:
  27              		.file 1 "ZumoLibrary\\Nunchuk.c"
   1:ZumoLibrary/Nunchuk.c **** /**
   2:ZumoLibrary/Nunchuk.c ****  * @file    Nunchuk.c
   3:ZumoLibrary/Nunchuk.c ****  * @brief   Basic methods for operating wii nunchuck. For more details, please refer to Nunchuk.h f
   4:ZumoLibrary/Nunchuk.c ****  * @details 
   5:ZumoLibrary/Nunchuk.c **** */
   6:ZumoLibrary/Nunchuk.c **** #include "nunchuk.h"
   7:ZumoLibrary/Nunchuk.c **** 
   8:ZumoLibrary/Nunchuk.c **** static int x,y,z;
   9:ZumoLibrary/Nunchuk.c **** 
  10:ZumoLibrary/Nunchuk.c **** /**
  11:ZumoLibrary/Nunchuk.c **** * @brief    Start Nunchuk
  12:ZumoLibrary/Nunchuk.c **** * @details
  13:ZumoLibrary/Nunchuk.c **** */
  14:ZumoLibrary/Nunchuk.c **** void nunchuk_start()
  15:ZumoLibrary/Nunchuk.c **** {
  28              		.loc 1 15 0
  29              		.cfi_startproc
  30              		@ args = 0, pretend = 0, frame = 0
  31              		@ frame_needed = 0, uses_anonymous_args = 0
  32 0000 08B5     		push	{r3, lr}
  33              		.cfi_def_cfa_offset 8
  34              		.cfi_offset 3, -8
  35              		.cfi_offset 14, -4
  16:ZumoLibrary/Nunchuk.c ****     I2C_Start();
  36              		.loc 1 16 0
  37 0002 FFF7FEFF 		bl	I2C_Start
  38              	.LVL0:
  39 0006 08BD     		pop	{r3, pc}
  40              		.cfi_endproc
  41              	.LFE64:
ARM GAS  C:\Users\asd\AppData\Local\Temp\ccORyMx4.s 			page 2


  42              		.size	nunchuk_start, .-nunchuk_start
  43              		.section	.text.nunchuk_init,"ax",%progbits
  44              		.align	2
  45              		.global	nunchuk_init
  46              		.thumb
  47              		.thumb_func
  48              		.type	nunchuk_init, %function
  49              	nunchuk_init:
  50              	.LFB65:
  17:ZumoLibrary/Nunchuk.c **** }
  18:ZumoLibrary/Nunchuk.c **** 
  19:ZumoLibrary/Nunchuk.c **** 
  20:ZumoLibrary/Nunchuk.c **** /**
  21:ZumoLibrary/Nunchuk.c **** * @brief    Initializing Nunchuk
  22:ZumoLibrary/Nunchuk.c **** * @details  write value(0x00) to register(address - 0x40) to initialize nunchuk
  23:ZumoLibrary/Nunchuk.c **** */
  24:ZumoLibrary/Nunchuk.c **** void nunchuk_init()
  25:ZumoLibrary/Nunchuk.c **** {
  51              		.loc 1 25 0
  52              		.cfi_startproc
  53              		@ args = 0, pretend = 0, frame = 8
  54              		@ frame_needed = 0, uses_anonymous_args = 0
  55 0000 10B5     		push	{r4, lr}
  56              		.cfi_def_cfa_offset 8
  57              		.cfi_offset 4, -8
  58              		.cfi_offset 14, -4
  59 0002 82B0     		sub	sp, sp, #8
  60              		.cfi_def_cfa_offset 16
  26:ZumoLibrary/Nunchuk.c ****     uint8_t buf[2] = { 0x40, 0x00 };
  61              		.loc 1 26 0
  62 0004 4023     		movs	r3, #64
  63 0006 8DF80430 		strb	r3, [sp, #4]
  64 000a 0024     		movs	r4, #0
  65 000c 8DF80540 		strb	r4, [sp, #5]
  27:ZumoLibrary/Nunchuk.c ****     uint8_t status;
  28:ZumoLibrary/Nunchuk.c ****     I2C_MasterClearStatus();
  66              		.loc 1 28 0
  67 0010 FFF7FEFF 		bl	I2C_MasterClearStatus
  68              	.LVL1:
  29:ZumoLibrary/Nunchuk.c ****     CyDelay(100);
  69              		.loc 1 29 0
  70 0014 6420     		movs	r0, #100
  71 0016 FFF7FEFF 		bl	CyDelay
  72              	.LVL2:
  30:ZumoLibrary/Nunchuk.c ****     status = I2C_MasterWriteBuf(0x52, buf, 2, I2C_MODE_COMPLETE_XFER);
  73              		.loc 1 30 0
  74 001a 2346     		mov	r3, r4
  75 001c 0222     		movs	r2, #2
  76 001e 01A9     		add	r1, sp, #4
  77 0020 5220     		movs	r0, #82
  78 0022 FFF7FEFF 		bl	I2C_MasterWriteBuf
  79              	.LVL3:
  80              	.L4:
  31:ZumoLibrary/Nunchuk.c ****     while(((status = I2C_MasterStatus()) & I2C_MSTAT_WR_CMPLT) == 0);
  81              		.loc 1 31 0 discriminator 1
  82 0026 FFF7FEFF 		bl	I2C_MasterStatus
  83              	.LVL4:
ARM GAS  C:\Users\asd\AppData\Local\Temp\ccORyMx4.s 			page 3


  84 002a 10F0020F 		tst	r0, #2
  85 002e FAD0     		beq	.L4
  32:ZumoLibrary/Nunchuk.c ****     CyDelay(100);
  86              		.loc 1 32 0
  87 0030 6420     		movs	r0, #100
  88              	.LVL5:
  89 0032 FFF7FEFF 		bl	CyDelay
  90              	.LVL6:
  33:ZumoLibrary/Nunchuk.c **** }    
  91              		.loc 1 33 0
  92 0036 02B0     		add	sp, sp, #8
  93              		.cfi_def_cfa_offset 8
  94              		@ sp needed
  95 0038 10BD     		pop	{r4, pc}
  96              		.cfi_endproc
  97              	.LFE65:
  98              		.size	nunchuk_init, .-nunchuk_init
  99 003a 00BF     		.section	.text.nunchuk_read,"ax",%progbits
 100              		.align	2
 101              		.global	nunchuk_read
 102              		.thumb
 103              		.thumb_func
 104              		.type	nunchuk_read, %function
 105              	nunchuk_read:
 106              	.LFB66:
  34:ZumoLibrary/Nunchuk.c **** 
  35:ZumoLibrary/Nunchuk.c **** 
  36:ZumoLibrary/Nunchuk.c **** /**
  37:ZumoLibrary/Nunchuk.c **** * @brief    Reading Nunchuk value
  38:ZumoLibrary/Nunchuk.c **** * @details  Reading nunchuk value and getting joystick and accelerometer values
  39:ZumoLibrary/Nunchuk.c **** */
  40:ZumoLibrary/Nunchuk.c **** void nunchuk_read()
  41:ZumoLibrary/Nunchuk.c **** {
 107              		.loc 1 41 0
 108              		.cfi_startproc
 109              		@ args = 0, pretend = 0, frame = 8
 110              		@ frame_needed = 0, uses_anonymous_args = 0
 111 0000 30B5     		push	{r4, r5, lr}
 112              		.cfi_def_cfa_offset 12
 113              		.cfi_offset 4, -12
 114              		.cfi_offset 5, -8
 115              		.cfi_offset 14, -4
 116 0002 83B0     		sub	sp, sp, #12
 117              		.cfi_def_cfa_offset 24
  42:ZumoLibrary/Nunchuk.c ****     uint8_t status;
  43:ZumoLibrary/Nunchuk.c ****     uint8_t buf[6];
  44:ZumoLibrary/Nunchuk.c ****     
  45:ZumoLibrary/Nunchuk.c ****     // send conversion command
  46:ZumoLibrary/Nunchuk.c ****     buf[0] = 0x00;
 118              		.loc 1 46 0
 119 0004 0025     		movs	r5, #0
 120 0006 02AC     		add	r4, sp, #8
 121 0008 04F8085D 		strb	r5, [r4, #-8]!
  47:ZumoLibrary/Nunchuk.c ****     I2C_MasterClearStatus();
 122              		.loc 1 47 0
 123 000c FFF7FEFF 		bl	I2C_MasterClearStatus
 124              	.LVL7:
ARM GAS  C:\Users\asd\AppData\Local\Temp\ccORyMx4.s 			page 4


  48:ZumoLibrary/Nunchuk.c ****     status = I2C_MasterWriteBuf(0x52, buf, 1, I2C_MODE_COMPLETE_XFER);
 125              		.loc 1 48 0
 126 0010 2B46     		mov	r3, r5
 127 0012 0122     		movs	r2, #1
 128 0014 2146     		mov	r1, r4
 129 0016 5220     		movs	r0, #82
 130 0018 FFF7FEFF 		bl	I2C_MasterWriteBuf
 131              	.LVL8:
 132              	.L7:
  49:ZumoLibrary/Nunchuk.c ****     while(((status = I2C_MasterStatus()) & I2C_MSTAT_WR_CMPLT) == 0);
 133              		.loc 1 49 0 discriminator 1
 134 001c FFF7FEFF 		bl	I2C_MasterStatus
 135              	.LVL9:
 136 0020 10F0020F 		tst	r0, #2
 137 0024 FAD0     		beq	.L7
  50:ZumoLibrary/Nunchuk.c ****     
  51:ZumoLibrary/Nunchuk.c ****     // wait for conversion to complete
  52:ZumoLibrary/Nunchuk.c ****     CyDelay(50); // todo: check if shorter wait would work
 138              		.loc 1 52 0
 139 0026 3220     		movs	r0, #50
 140              	.LVL10:
 141 0028 FFF7FEFF 		bl	CyDelay
 142              	.LVL11:
  53:ZumoLibrary/Nunchuk.c ****    
  54:ZumoLibrary/Nunchuk.c ****     // read values
  55:ZumoLibrary/Nunchuk.c ****     I2C_MasterClearStatus();
 143              		.loc 1 55 0
 144 002c FFF7FEFF 		bl	I2C_MasterClearStatus
 145              	.LVL12:
  56:ZumoLibrary/Nunchuk.c ****     status = I2C_MasterReadBuf(0x52, buf, 6, I2C_MODE_COMPLETE_XFER);
 146              		.loc 1 56 0
 147 0030 0023     		movs	r3, #0
 148 0032 0622     		movs	r2, #6
 149 0034 6946     		mov	r1, sp
 150 0036 5220     		movs	r0, #82
 151 0038 FFF7FEFF 		bl	I2C_MasterReadBuf
 152              	.LVL13:
 153              	.L8:
  57:ZumoLibrary/Nunchuk.c ****     while(((status = I2C_MasterStatus()) & I2C_MSTAT_RD_CMPLT) == 0);
 154              		.loc 1 57 0 discriminator 1
 155 003c FFF7FEFF 		bl	I2C_MasterStatus
 156              	.LVL14:
 157 0040 10F0010F 		tst	r0, #1
 158 0044 FAD0     		beq	.L8
 159 0046 0023     		movs	r3, #0
 160 0048 00E0     		b	.L9
 161              	.LVL15:
 162              	.L10:
  58:ZumoLibrary/Nunchuk.c ****     
  59:ZumoLibrary/Nunchuk.c ****     int i;
  60:ZumoLibrary/Nunchuk.c ****     // decrypt data
  61:ZumoLibrary/Nunchuk.c ****     for(i = 0; i < 6; i++) buf[i] = (buf[i] ^ 0x17) + 0x17;
 163              		.loc 1 61 0 discriminator 3
 164 004a 0133     		adds	r3, r3, #1
 165              	.LVL16:
 166              	.L9:
 167              		.loc 1 61 0 is_stmt 0 discriminator 1
ARM GAS  C:\Users\asd\AppData\Local\Temp\ccORyMx4.s 			page 5


 168 004c 052B     		cmp	r3, #5
 169 004e FCDD     		ble	.L10
  62:ZumoLibrary/Nunchuk.c ****     // accelerometer values
  63:ZumoLibrary/Nunchuk.c ****     x = (buf[2] << 2) | ((buf[5] >> 2) & 0x03);
  64:ZumoLibrary/Nunchuk.c ****     y = (buf[3] << 2) | ((buf[5] >> 4) & 0x03);
  65:ZumoLibrary/Nunchuk.c ****     z = (buf[4] << 2) | ((buf[5] >> 6) & 0x03);
  66:ZumoLibrary/Nunchuk.c ****     
  67:ZumoLibrary/Nunchuk.c ****     //If you want to print out the value  
  68:ZumoLibrary/Nunchuk.c ****     //printf("%3d %3d, %d, %d, %4d %4d %4d\r\n", buf[0], buf[1], (buf[5] >> 1) & 1, buf[5] & 1, x, 
  69:ZumoLibrary/Nunchuk.c **** } ...
 170              		.loc 1 69 0 is_stmt 1
 171 0050 03B0     		add	sp, sp, #12
 172              		.cfi_def_cfa_offset 12
 173              		@ sp needed
 174 0052 30BD     		pop	{r4, r5, pc}
 175              		.cfi_endproc
 176              	.LFE66:
 177              		.size	nunchuk_read, .-nunchuk_read
 178              		.text
 179              	.Letext0:
 180              		.file 2 "j:\\psoc\\psoc creator\\4.1\\psoc creator\\import\\gnu\\arm\\5.4.1\\arm-none-eabi\\includ
 181              		.file 3 "j:\\psoc\\psoc creator\\4.1\\psoc creator\\import\\gnu\\arm\\5.4.1\\arm-none-eabi\\includ
 182              		.file 4 "Generated_Source\\PSoC5/I2C.h"
 183              		.file 5 "Generated_Source\\PSoC5/CyLib.h"
 184              		.file 6 "Generated_Source\\PSoC5/core_cm3.h"