ARM GAS  C:\Users\asd\AppData\Local\Temp\ccKYL9Zj.s 			page 1


   1              		.syntax unified
   2              		.cpu cortex-m3
   3              		.fpu softvfp
   4              		.eabi_attribute 20, 1
   5              		.eabi_attribute 21, 1
   6              		.eabi_attribute 23, 3
   7              		.eabi_attribute 24, 1
   8              		.eabi_attribute 25, 1
   9              		.eabi_attribute 26, 1
  10              		.eabi_attribute 30, 1
  11              		.eabi_attribute 34, 1
  12              		.eabi_attribute 18, 4
  13              		.thumb
  14              		.syntax unified
  15              		.file	"Timer_PM.c"
  16              		.text
  17              	.Ltext0:
  18              		.cfi_sections	.debug_frame
  19              		.section	.text.Timer_SaveConfig,"ax",%progbits
  20              		.align	2
  21              		.global	Timer_SaveConfig
  22              		.thumb
  23              		.thumb_func
  24              		.type	Timer_SaveConfig, %function
  25              	Timer_SaveConfig:
  26              	.LFB0:
  27              		.file 1 "Generated_Source\\PSoC5\\Timer_PM.c"
   1:Generated_Source\PSoC5/Timer_PM.c **** /*******************************************************************************
   2:Generated_Source\PSoC5/Timer_PM.c **** * File Name: Timer_PM.c
   3:Generated_Source\PSoC5/Timer_PM.c **** * Version 2.80
   4:Generated_Source\PSoC5/Timer_PM.c **** *
   5:Generated_Source\PSoC5/Timer_PM.c **** *  Description:
   6:Generated_Source\PSoC5/Timer_PM.c **** *     This file provides the power management source code to API for the
   7:Generated_Source\PSoC5/Timer_PM.c **** *     Timer.
   8:Generated_Source\PSoC5/Timer_PM.c **** *
   9:Generated_Source\PSoC5/Timer_PM.c **** *   Note:
  10:Generated_Source\PSoC5/Timer_PM.c **** *     None
  11:Generated_Source\PSoC5/Timer_PM.c **** *
  12:Generated_Source\PSoC5/Timer_PM.c **** *******************************************************************************
  13:Generated_Source\PSoC5/Timer_PM.c **** * Copyright 2008-2017, Cypress Semiconductor Corporation.  All rights reserved.
  14:Generated_Source\PSoC5/Timer_PM.c **** * You may use this file only in accordance with the license, terms, conditions,
  15:Generated_Source\PSoC5/Timer_PM.c **** * disclaimers, and limitations in the end user license agreement accompanying
  16:Generated_Source\PSoC5/Timer_PM.c **** * the software package with which this file was provided.
  17:Generated_Source\PSoC5/Timer_PM.c **** ********************************************************************************/
  18:Generated_Source\PSoC5/Timer_PM.c **** 
  19:Generated_Source\PSoC5/Timer_PM.c **** #include "Timer.h"
  20:Generated_Source\PSoC5/Timer_PM.c **** 
  21:Generated_Source\PSoC5/Timer_PM.c **** static Timer_backupStruct Timer_backup;
  22:Generated_Source\PSoC5/Timer_PM.c **** 
  23:Generated_Source\PSoC5/Timer_PM.c **** 
  24:Generated_Source\PSoC5/Timer_PM.c **** /*******************************************************************************
  25:Generated_Source\PSoC5/Timer_PM.c **** * Function Name: Timer_SaveConfig
  26:Generated_Source\PSoC5/Timer_PM.c **** ********************************************************************************
  27:Generated_Source\PSoC5/Timer_PM.c **** *
  28:Generated_Source\PSoC5/Timer_PM.c **** * Summary:
  29:Generated_Source\PSoC5/Timer_PM.c **** *     Save the current user configuration
  30:Generated_Source\PSoC5/Timer_PM.c **** *
ARM GAS  C:\Users\asd\AppData\Local\Temp\ccKYL9Zj.s 			page 2


  31:Generated_Source\PSoC5/Timer_PM.c **** * Parameters:
  32:Generated_Source\PSoC5/Timer_PM.c **** *  void
  33:Generated_Source\PSoC5/Timer_PM.c **** *
  34:Generated_Source\PSoC5/Timer_PM.c **** * Return:
  35:Generated_Source\PSoC5/Timer_PM.c **** *  void
  36:Generated_Source\PSoC5/Timer_PM.c **** *
  37:Generated_Source\PSoC5/Timer_PM.c **** * Global variables:
  38:Generated_Source\PSoC5/Timer_PM.c **** *  Timer_backup:  Variables of this global structure are modified to
  39:Generated_Source\PSoC5/Timer_PM.c **** *  store the values of non retention configuration registers when Sleep() API is
  40:Generated_Source\PSoC5/Timer_PM.c **** *  called.
  41:Generated_Source\PSoC5/Timer_PM.c **** *
  42:Generated_Source\PSoC5/Timer_PM.c **** *******************************************************************************/
  43:Generated_Source\PSoC5/Timer_PM.c **** void Timer_SaveConfig(void) 
  44:Generated_Source\PSoC5/Timer_PM.c **** {
  28              		.loc 1 44 0
  29              		.cfi_startproc
  30              		@ args = 0, pretend = 0, frame = 0
  31              		@ frame_needed = 0, uses_anonymous_args = 0
  32 0000 08B5     		push	{r3, lr}
  33              		.cfi_def_cfa_offset 8
  34              		.cfi_offset 3, -8
  35              		.cfi_offset 14, -4
  45:Generated_Source\PSoC5/Timer_PM.c ****     #if (!Timer_UsingFixedFunction)
  46:Generated_Source\PSoC5/Timer_PM.c ****         Timer_backup.TimerUdb = Timer_ReadCounter();
  36              		.loc 1 46 0
  37 0002 FFF7FEFF 		bl	Timer_ReadCounter
  38              	.LVL0:
  39 0006 034B     		ldr	r3, .L3
  40 0008 5880     		strh	r0, [r3, #2]	@ movhi
  47:Generated_Source\PSoC5/Timer_PM.c ****         Timer_backup.InterruptMaskValue = Timer_STATUS_MASK;
  41              		.loc 1 47 0
  42 000a 034A     		ldr	r2, .L3+4
  43 000c 1278     		ldrb	r2, [r2]	@ zero_extendqisi2
  44 000e 1A71     		strb	r2, [r3, #4]
  45 0010 08BD     		pop	{r3, pc}
  46              	.L4:
  47 0012 00BF     		.align	2
  48              	.L3:
  49 0014 00000000 		.word	.LANCHOR0
  50 0018 8B640040 		.word	1073767563
  51              		.cfi_endproc
  52              	.LFE0:
  53              		.size	Timer_SaveConfig, .-Timer_SaveConfig
  54              		.section	.text.Timer_RestoreConfig,"ax",%progbits
  55              		.align	2
  56              		.global	Timer_RestoreConfig
  57              		.thumb
  58              		.thumb_func
  59              		.type	Timer_RestoreConfig, %function
  60              	Timer_RestoreConfig:
  61              	.LFB1:
  48:Generated_Source\PSoC5/Timer_PM.c ****         #if (Timer_UsingHWCaptureCounter)
  49:Generated_Source\PSoC5/Timer_PM.c ****             Timer_backup.TimerCaptureCounter = Timer_ReadCaptureCount();
  50:Generated_Source\PSoC5/Timer_PM.c ****         #endif /* Back Up capture counter register  */
  51:Generated_Source\PSoC5/Timer_PM.c **** 
  52:Generated_Source\PSoC5/Timer_PM.c ****         #if(!Timer_UDB_CONTROL_REG_REMOVED)
  53:Generated_Source\PSoC5/Timer_PM.c ****             Timer_backup.TimerControlRegister = Timer_ReadControlRegister();
ARM GAS  C:\Users\asd\AppData\Local\Temp\ccKYL9Zj.s 			page 3


  54:Generated_Source\PSoC5/Timer_PM.c ****         #endif /* Backup the enable state of the Timer component */
  55:Generated_Source\PSoC5/Timer_PM.c ****     #endif /* Backup non retention registers in UDB implementation. All fixed function registers ar
  56:Generated_Source\PSoC5/Timer_PM.c **** }
  57:Generated_Source\PSoC5/Timer_PM.c **** 
  58:Generated_Source\PSoC5/Timer_PM.c **** 
  59:Generated_Source\PSoC5/Timer_PM.c **** /*******************************************************************************
  60:Generated_Source\PSoC5/Timer_PM.c **** * Function Name: Timer_RestoreConfig
  61:Generated_Source\PSoC5/Timer_PM.c **** ********************************************************************************
  62:Generated_Source\PSoC5/Timer_PM.c **** *
  63:Generated_Source\PSoC5/Timer_PM.c **** * Summary:
  64:Generated_Source\PSoC5/Timer_PM.c **** *  Restores the current user configuration.
  65:Generated_Source\PSoC5/Timer_PM.c **** *
  66:Generated_Source\PSoC5/Timer_PM.c **** * Parameters:
  67:Generated_Source\PSoC5/Timer_PM.c **** *  void
  68:Generated_Source\PSoC5/Timer_PM.c **** *
  69:Generated_Source\PSoC5/Timer_PM.c **** * Return:
  70:Generated_Source\PSoC5/Timer_PM.c **** *  void
  71:Generated_Source\PSoC5/Timer_PM.c **** *
  72:Generated_Source\PSoC5/Timer_PM.c **** * Global variables:
  73:Generated_Source\PSoC5/Timer_PM.c **** *  Timer_backup:  Variables of this global structure are used to
  74:Generated_Source\PSoC5/Timer_PM.c **** *  restore the values of non retention registers on wakeup from sleep mode.
  75:Generated_Source\PSoC5/Timer_PM.c **** *
  76:Generated_Source\PSoC5/Timer_PM.c **** *******************************************************************************/
  77:Generated_Source\PSoC5/Timer_PM.c **** void Timer_RestoreConfig(void) 
  78:Generated_Source\PSoC5/Timer_PM.c **** {   
  62              		.loc 1 78 0
  63              		.cfi_startproc
  64              		@ args = 0, pretend = 0, frame = 0
  65              		@ frame_needed = 0, uses_anonymous_args = 0
  66 0000 10B5     		push	{r4, lr}
  67              		.cfi_def_cfa_offset 8
  68              		.cfi_offset 4, -8
  69              		.cfi_offset 14, -4
  79:Generated_Source\PSoC5/Timer_PM.c ****     #if (!Timer_UsingFixedFunction)
  80:Generated_Source\PSoC5/Timer_PM.c **** 
  81:Generated_Source\PSoC5/Timer_PM.c ****         Timer_WriteCounter(Timer_backup.TimerUdb);
  70              		.loc 1 81 0
  71 0002 044C     		ldr	r4, .L7
  72 0004 6088     		ldrh	r0, [r4, #2]
  73 0006 FFF7FEFF 		bl	Timer_WriteCounter
  74              	.LVL1:
  82:Generated_Source\PSoC5/Timer_PM.c ****         Timer_STATUS_MASK =Timer_backup.InterruptMaskValue;
  75              		.loc 1 82 0
  76 000a 2279     		ldrb	r2, [r4, #4]	@ zero_extendqisi2
  77 000c 024B     		ldr	r3, .L7+4
  78 000e 1A70     		strb	r2, [r3]
  79 0010 10BD     		pop	{r4, pc}
  80              	.L8:
  81 0012 00BF     		.align	2
  82              	.L7:
  83 0014 00000000 		.word	.LANCHOR0
  84 0018 8B640040 		.word	1073767563
  85              		.cfi_endproc
  86              	.LFE1:
  87              		.size	Timer_RestoreConfig, .-Timer_RestoreConfig
  88              		.section	.text.Timer_Sleep,"ax",%progbits
  89              		.align	2
ARM GAS  C:\Users\asd\AppData\Local\Temp\ccKYL9Zj.s 			page 4


  90              		.global	Timer_Sleep
  91              		.thumb
  92              		.thumb_func
  93              		.type	Timer_Sleep, %function
  94              	Timer_Sleep:
  95              	.LFB2:
  83:Generated_Source\PSoC5/Timer_PM.c ****         #if (Timer_UsingHWCaptureCounter)
  84:Generated_Source\PSoC5/Timer_PM.c ****             Timer_SetCaptureCount(Timer_backup.TimerCaptureCounter);
  85:Generated_Source\PSoC5/Timer_PM.c ****         #endif /* Restore Capture counter register*/
  86:Generated_Source\PSoC5/Timer_PM.c **** 
  87:Generated_Source\PSoC5/Timer_PM.c ****         #if(!Timer_UDB_CONTROL_REG_REMOVED)
  88:Generated_Source\PSoC5/Timer_PM.c ****             Timer_WriteControlRegister(Timer_backup.TimerControlRegister);
  89:Generated_Source\PSoC5/Timer_PM.c ****         #endif /* Restore the enable state of the Timer component */
  90:Generated_Source\PSoC5/Timer_PM.c ****     #endif /* Restore non retention registers in the UDB implementation only */
  91:Generated_Source\PSoC5/Timer_PM.c **** }
  92:Generated_Source\PSoC5/Timer_PM.c **** 
  93:Generated_Source\PSoC5/Timer_PM.c **** 
  94:Generated_Source\PSoC5/Timer_PM.c **** /*******************************************************************************
  95:Generated_Source\PSoC5/Timer_PM.c **** * Function Name: Timer_Sleep
  96:Generated_Source\PSoC5/Timer_PM.c **** ********************************************************************************
  97:Generated_Source\PSoC5/Timer_PM.c **** *
  98:Generated_Source\PSoC5/Timer_PM.c **** * Summary:
  99:Generated_Source\PSoC5/Timer_PM.c **** *     Stop and Save the user configuration
 100:Generated_Source\PSoC5/Timer_PM.c **** *
 101:Generated_Source\PSoC5/Timer_PM.c **** * Parameters:
 102:Generated_Source\PSoC5/Timer_PM.c **** *  void
 103:Generated_Source\PSoC5/Timer_PM.c **** *
 104:Generated_Source\PSoC5/Timer_PM.c **** * Return:
 105:Generated_Source\PSoC5/Timer_PM.c **** *  void
 106:Generated_Source\PSoC5/Timer_PM.c **** *
 107:Generated_Source\PSoC5/Timer_PM.c **** * Global variables:
 108:Generated_Source\PSoC5/Timer_PM.c **** *  Timer_backup.TimerEnableState:  Is modified depending on the
 109:Generated_Source\PSoC5/Timer_PM.c **** *  enable state of the block before entering sleep mode.
 110:Generated_Source\PSoC5/Timer_PM.c **** *
 111:Generated_Source\PSoC5/Timer_PM.c **** *******************************************************************************/
 112:Generated_Source\PSoC5/Timer_PM.c **** void Timer_Sleep(void) 
 113:Generated_Source\PSoC5/Timer_PM.c **** {
  96              		.loc 1 113 0
  97              		.cfi_startproc
  98              		@ args = 0, pretend = 0, frame = 0
  99              		@ frame_needed = 0, uses_anonymous_args = 0
 100 0000 08B5     		push	{r3, lr}
 101              		.cfi_def_cfa_offset 8
 102              		.cfi_offset 3, -8
 103              		.cfi_offset 14, -4
 114:Generated_Source\PSoC5/Timer_PM.c ****     #if(!Timer_UDB_CONTROL_REG_REMOVED)
 115:Generated_Source\PSoC5/Timer_PM.c ****         /* Save Counter's enable state */
 116:Generated_Source\PSoC5/Timer_PM.c ****         if(Timer_CTRL_ENABLE == (Timer_CONTROL & Timer_CTRL_ENABLE))
 117:Generated_Source\PSoC5/Timer_PM.c ****         {
 118:Generated_Source\PSoC5/Timer_PM.c ****             /* Timer is enabled */
 119:Generated_Source\PSoC5/Timer_PM.c ****             Timer_backup.TimerEnableState = 1u;
 120:Generated_Source\PSoC5/Timer_PM.c ****         }
 121:Generated_Source\PSoC5/Timer_PM.c ****         else
 122:Generated_Source\PSoC5/Timer_PM.c ****         {
 123:Generated_Source\PSoC5/Timer_PM.c ****             /* Timer is disabled */
 124:Generated_Source\PSoC5/Timer_PM.c ****             Timer_backup.TimerEnableState = 0u;
 125:Generated_Source\PSoC5/Timer_PM.c ****         }
ARM GAS  C:\Users\asd\AppData\Local\Temp\ccKYL9Zj.s 			page 5


 126:Generated_Source\PSoC5/Timer_PM.c ****     #endif /* Back up enable state from the Timer control register */
 127:Generated_Source\PSoC5/Timer_PM.c ****     Timer_Stop();
 104              		.loc 1 127 0
 105 0002 FFF7FEFF 		bl	Timer_Stop
 106              	.LVL2:
 128:Generated_Source\PSoC5/Timer_PM.c ****     Timer_SaveConfig();
 107              		.loc 1 128 0
 108 0006 FFF7FEFF 		bl	Timer_SaveConfig
 109              	.LVL3:
 110 000a 08BD     		pop	{r3, pc}
 111              		.cfi_endproc
 112              	.LFE2:
 113              		.size	Timer_Sleep, .-Timer_Sleep
 114              		.section	.text.Timer_Wakeup,"ax",%progbits
 115              		.align	2
 116              		.global	Timer_Wakeup
 117              		.thumb
 118              		.thumb_func
 119              		.type	Timer_Wakeup, %function
 120              	Timer_Wakeup:
 121              	.LFB3:
 129:Generated_Source\PSoC5/Timer_PM.c **** }
 130:Generated_Source\PSoC5/Timer_PM.c **** 
 131:Generated_Source\PSoC5/Timer_PM.c **** 
 132:Generated_Source\PSoC5/Timer_PM.c **** /*******************************************************************************
 133:Generated_Source\PSoC5/Timer_PM.c **** * Function Name: Timer_Wakeup
 134:Generated_Source\PSoC5/Timer_PM.c **** ********************************************************************************
 135:Generated_Source\PSoC5/Timer_PM.c **** *
 136:Generated_Source\PSoC5/Timer_PM.c **** * Summary:
 137:Generated_Source\PSoC5/Timer_PM.c **** *  Restores and enables the user configuration
 138:Generated_Source\PSoC5/Timer_PM.c **** *
 139:Generated_Source\PSoC5/Timer_PM.c **** * Parameters:
 140:Generated_Source\PSoC5/Timer_PM.c **** *  void
 141:Generated_Source\PSoC5/Timer_PM.c **** *
 142:Generated_Source\PSoC5/Timer_PM.c **** * Return:
 143:Generated_Source\PSoC5/Timer_PM.c **** *  void
 144:Generated_Source\PSoC5/Timer_PM.c **** *
 145:Generated_Source\PSoC5/Timer_PM.c **** * Global variables:
 146:Generated_Source\PSoC5/Timer_PM.c **** *  Timer_backup.enableState:  Is used to restore the enable state of
 147:Generated_Source\PSoC5/Timer_PM.c **** *  block on wakeup from sleep mode.
 148:Generated_Source\PSoC5/Timer_PM.c **** *
 149:Generated_Source\PSoC5/Timer_PM.c **** *******************************************************************************/
 150:Generated_Source\PSoC5/Timer_PM.c **** void Timer_Wakeup(void) 
 151:Generated_Source\PSoC5/Timer_PM.c **** {
 122              		.loc 1 151 0
 123              		.cfi_startproc
 124              		@ args = 0, pretend = 0, frame = 0
 125              		@ frame_needed = 0, uses_anonymous_args = 0
 126 0000 08B5     		push	{r3, lr}
 127              		.cfi_def_cfa_offset 8
 128              		.cfi_offset 3, -8
 129              		.cfi_offset 14, -4
 152:Generated_Source\PSoC5/Timer_PM.c ****     Timer_RestoreConfig();
 130              		.loc 1 152 0
 131 0002 FFF7FEFF 		bl	Timer_RestoreConfig
 132              	.LVL4:
 133 0006 08BD     		pop	{r3, pc}
ARM GAS  C:\Users\asd\AppData\Local\Temp\ccKYL9Zj.s 			page 6


 134              		.cfi_endproc
 135              	.LFE3:
 136              		.size	Timer_Wakeup, .-Timer_Wakeup
 137              		.bss
 138              		.align	2
 139              		.set	.LANCHOR0,. + 0
 140              		.type	Timer_backup, %object
 141              		.size	Timer_backup, 6
 142              	Timer_backup:
 143 0000 00000000 		.space	6
 143      0000
 144              		.text
 145              	.Letext0:
 146              		.file 2 "Generated_Source\\PSoC5\\cytypes.h"
 147              		.file 3 "Generated_Source\\PSoC5\\Timer.h"